target datalayout = "e-m:e-p270:32:32-p271:32:32-p272:64:64-i64:64-i128:128-f80:128-n8:16:32:64-S128"
target triple = "x86_64-pc-linux-gnu"

%struct.t_bin = type { i32, i32, ptr }

@.str.1 = private unnamed_addr constant [120 x i8] c"generated/home/dtcxzyw/WorkSpace/Projects/compilers/llvm-opt-benchmark/bench/gromacs/gromacs/src/gromacs/mdlib/rbin.cpp\00", align 1
@.str.2 = private unnamed_addr constant [8 x i8] c"b->rbuf\00", align 1

; Function Attrs: mustprogress uwtable
define internal void @_ZL15gmx_srenew_implIdEvPKcS1_iRPT_m(ptr noundef %0, ptr noundef %1, i32 noundef %2, ptr noundef nonnull align 8 dereferenceable(8) %3, i64 noundef %4) #0 {
  %6 = alloca ptr, align 8
  %7 = alloca ptr, align 8
  %8 = alloca i32, align 4
  %9 = alloca ptr, align 8
  %10 = alloca i64, align 8
  store ptr %0, ptr %6, align 8
  store ptr %1, ptr %7, align 8
  store i32 %2, ptr %8, align 4
  store ptr %3, ptr %9, align 8
  store i64 %4, ptr %10, align 8
  %11 = load ptr, ptr %6, align 8
  %12 = load ptr, ptr %7, align 8
  %13 = load i32, ptr %8, align 4
  %14 = load ptr, ptr %9, align 8
  %15 = load ptr, ptr %14, align 8
  %16 = load i64, ptr %10, align 8
  %17 = call noundef ptr @_Z12save_reallocPKcS0_iPvmm(ptr noundef %11, ptr noundef %12, i32 noundef %13, ptr noundef %15, i64 noundef %16, i64 noundef 8)
  %18 = load ptr, ptr %9, align 8
  store ptr %17, ptr %18, align 8
  ret void
}

; Function Attrs: mustprogress uwtable
define noundef i32 @_Z8add_binrP5t_biniPKf(ptr noundef %0, i32 noundef %1, ptr noundef %2) #0 {
  %4 = alloca ptr, align 8
  %5 = alloca i32, align 4
  %6 = alloca ptr, align 8
  %7 = alloca i32, align 4
  %8 = alloca i32, align 4
  %9 = alloca i32, align 4
  %10 = alloca ptr, align 8
  store ptr %0, ptr %4, align 8
  store i32 %1, ptr %5, align 4
  store ptr %2, ptr %6, align 8
  %11 = load ptr, ptr %4, align 8
  %12 = getelementptr inbounds %struct.t_bin, ptr %11, i32 0, i32 0
  %13 = load i32, ptr %12, align 8
  %14 = load i32, ptr %5, align 4
  %15 = add nsw i32 %13, %14
  %16 = load ptr, ptr %4, align 8
  %17 = getelementptr inbounds %struct.t_bin, ptr %16, i32 0, i32 1
  %18 = load i32, ptr %17, align 4
  %19 = icmp sgt i32 %15, %18
  br i1 %19, label %20, label %48

20:                                               ; preds = %3
  %21 = load ptr, ptr %4, align 8
  %22 = getelementptr inbounds %struct.t_bin, ptr %21, i32 0, i32 0
  %23 = load i32, ptr %22, align 8
  %24 = load i32, ptr %5, align 4
  %25 = add nsw i32 %23, %24
  %26 = load ptr, ptr %4, align 8
  %27 = getelementptr inbounds %struct.t_bin, ptr %26, i32 0, i32 1
  store i32 %25, ptr %27, align 4
  %28 = load ptr, ptr %4, align 8
  %29 = getelementptr inbounds %struct.t_bin, ptr %28, i32 0, i32 1
  %30 = load i32, ptr %29, align 4
  %31 = srem i32 %30, 4
  store i32 %31, ptr %8, align 4
  %32 = load i32, ptr %8, align 4
  %33 = icmp ne i32 %32, 0
  br i1 %33, label %34, label %41

34:                                               ; preds = %20
  %35 = load i32, ptr %8, align 4
  %36 = sub nsw i32 4, %35
  %37 = load ptr, ptr %4, align 8
  %38 = getelementptr inbounds %struct.t_bin, ptr %37, i32 0, i32 1
  %39 = load i32, ptr %38, align 4
  %40 = add nsw i32 %39, %36
  store i32 %40, ptr %38, align 4
  br label %41

41:                                               ; preds = %34, %20
  %42 = load ptr, ptr %4, align 8
  %43 = getelementptr inbounds %struct.t_bin, ptr %42, i32 0, i32 2
  %44 = load ptr, ptr %4, align 8
  %45 = getelementptr inbounds %struct.t_bin, ptr %44, i32 0, i32 1
  %46 = load i32, ptr %45, align 4
  %47 = sext i32 %46 to i64
  call void @_ZL15gmx_srenew_implIdEvPKcS1_iRPT_m(ptr noundef @.str.2, ptr noundef @.str.1, i32 noundef 81, ptr noundef nonnull align 8 dereferenceable(8) %43, i64 noundef %47)
  br label %48

48:                                               ; preds = %41, %3
  %49 = load ptr, ptr %4, align 8
  %50 = getelementptr inbounds %struct.t_bin, ptr %49, i32 0, i32 2
  %51 = load ptr, ptr %50, align 8
  %52 = load ptr, ptr %4, align 8
  %53 = getelementptr inbounds %struct.t_bin, ptr %52, i32 0, i32 0
  %54 = load i32, ptr %53, align 8
  %55 = sext i32 %54 to i64
  %56 = getelementptr inbounds double, ptr %51, i64 %55
  store ptr %56, ptr %10, align 8
  store i32 0, ptr %7, align 4
  br label %57

57:                                               ; preds = %72, %48
  %58 = load i32, ptr %7, align 4
  %59 = load i32, ptr %5, align 4
  %60 = icmp slt i32 %58, %59
  br i1 %60, label %61, label %75

61:                                               ; preds = %57
  %62 = load ptr, ptr %6, align 8
  %63 = load i32, ptr %7, align 4
  %64 = sext i32 %63 to i64
  %65 = getelementptr inbounds float, ptr %62, i64 %64
  %66 = load float, ptr %65, align 4
  %67 = fpext float %66 to double
  %68 = load ptr, ptr %10, align 8
  %69 = load i32, ptr %7, align 4
  %70 = sext i32 %69 to i64
  %71 = getelementptr inbounds double, ptr %68, i64 %70
  store double %67, ptr %71, align 8
  br label %72

72:                                               ; preds = %61
  %73 = load i32, ptr %7, align 4
  %74 = add nsw i32 %73, 1
  store i32 %74, ptr %7, align 4
  br label %57, !llvm.loop !5

75:                                               ; preds = %57
  %76 = load ptr, ptr %4, align 8
  %77 = getelementptr inbounds %struct.t_bin, ptr %76, i32 0, i32 0
  %78 = load i32, ptr %77, align 8
  store i32 %78, ptr %9, align 4
  %79 = load i32, ptr %5, align 4
  %80 = load ptr, ptr %4, align 8
  %81 = getelementptr inbounds %struct.t_bin, ptr %80, i32 0, i32 0
  %82 = load i32, ptr %81, align 8
  %83 = add nsw i32 %82, %79
  store i32 %83, ptr %81, align 8
  %84 = load i32, ptr %9, align 4
  ret i32 %84
}