; Function Attrs: mustprogress uwtable
define noundef i32 @_Z8add_binrP5t_biniPKf(ptr nocapture noundef %0, i32 noundef %1, ptr nocapture noundef readonly %2) local_unnamed_addr #0 {
  %4 = load i32, ptr %0, align 8
  %5 = add nsw i32 %4, %1
  %6 = getelementptr inbounds i8, ptr %0, i64 4
  %7 = load i32, ptr %6, align 4
  %8 = icmp sgt i32 %5, %7
  br i1 %8, label %9, label %._crit_edge29

._crit_edge29:                                    ; preds = %3
  %.phi.trans.insert = getelementptr inbounds i8, ptr %0, i64 8
  %.pre = load ptr, ptr %.phi.trans.insert, align 8
  br label %16

9:                                                ; preds = %3
  %10 = srem i32 %5, 4
  %.not = icmp eq i32 %10, 0
  %reass.sub = add i32 %5, 4
  %11 = sub i32 %reass.sub, %10
  %storemerge = select i1 %.not, i32 %5, i32 %11
  store i32 %storemerge, ptr %6, align 4
  %12 = getelementptr inbounds i8, ptr %0, i64 8
  %13 = sext i32 %storemerge to i64
  %14 = load ptr, ptr %12, align 8
  %15 = tail call noundef ptr @_Z12save_reallocPKcS0_iPvmm(ptr noundef nonnull @.str.2, ptr noundef nonnull @.str.1, i32 noundef 81, ptr noundef %14, i64 noundef %13, i64 noundef 8)
  store ptr %15, ptr %12, align 8
  %.pre30 = load i32, ptr %0, align 8
  br label %16

16:                                               ; preds = %._crit_edge29, %9
  %17 = phi i32 [ %4, %._crit_edge29 ], [ %.pre30, %9 ]
  %18 = phi ptr [ %.pre, %._crit_edge29 ], [ %15, %9 ]
  %19 = sext i32 %17 to i64
  %20 = getelementptr inbounds double, ptr %18, i64 %19
  %21 = icmp sgt i32 %1, 0
  br i1 %21, label %.lr.ph.preheader, label %._crit_edge

.lr.ph.preheader:                                 ; preds = %16
  %wide.trip.count = zext nneg i32 %1 to i64
  br label %.lr.ph

.lr.ph:                                           ; preds = %.lr.ph.preheader, %.lr.ph
  %indvars.iv = phi i64 [ 0, %.lr.ph.preheader ], [ %indvars.iv.next, %.lr.ph ]
  %22 = getelementptr inbounds float, ptr %2, i64 %indvars.iv
  %23 = load float, ptr %22, align 4
  %24 = fpext float %23 to double
  %25 = getelementptr inbounds double, ptr %20, i64 %indvars.iv
  store double %24, ptr %25, align 8
  %indvars.iv.next = add nuw nsw i64 %indvars.iv, 1
  %exitcond.not = icmp eq i64 %indvars.iv.next, %wide.trip.count
  br i1 %exitcond.not, label %._crit_edge.loopexit, label %.lr.ph, !llvm.loop !5

._crit_edge.loopexit:                             ; preds = %.lr.ph
  %.pre31 = load i32, ptr %0, align 8
  br label %._crit_edge

._crit_edge:                                      ; preds = %._crit_edge.loopexit, %16
  %26 = phi i32 [ %.pre31, %._crit_edge.loopexit ], [ %17, %16 ]
  %27 = add nsw i32 %26, %1
  store i32 %27, ptr %0, align 8
  ret i32 %26
}